; Function Attrs: mustprogress uwtable
define void @_ZN10OpenSubdiv6v3_6_03Vtr8internal14SparseSelector10selectEdgeEi(ptr nocapture noundef nonnull align 8 dereferenceable(9) %0, i32 noundef %1) local_unnamed_addr #0 align 2 {
  %3 = getelementptr inbounds nuw i8, ptr %0, i64 8
  %4 = load i8, ptr %3, align 8
  %5 = trunc i8 %4 to i1
  br i1 %5, label %_ZN10OpenSubdiv6v3_6_03Vtr8internal14SparseSelector19initializeSelectionEv.exit, label %6

6:                                                ; preds = %2
  %7 = load ptr, ptr %0, align 8
  tail call void @_ZN10OpenSubdiv6v3_6_03Vtr8internal10Refinement29initializeSparseSelectionTagsEv(ptr noundef nonnull align 8 dereferenceable(504) %7)
  store i8 1, ptr %3, align 8
  br label %_ZN10OpenSubdiv6v3_6_03Vtr8internal14SparseSelector19initializeSelectionEv.exit

_ZN10OpenSubdiv6v3_6_03Vtr8internal14SparseSelector19initializeSelectionEv.exit: ; preds = %2, %6
  %8 = load ptr, ptr %0, align 8
  %9 = getelementptr inbounds nuw i8, ptr %8, i64 432
  %10 = sext i32 %1 to i64
  %11 = load ptr, ptr %9, align 8
  %12 = getelementptr inbounds %"struct.OpenSubdiv::v3_6_0::Vtr::internal::Refinement::SparseTag", ptr %11, i64 %10
  %13 = load i8, ptr %12, align 1
  %14 = and i8 %13, 1
  %.not = icmp eq i8 %14, 0
  br i1 %.not, label %15, label %41

15:                                               ; preds = %_ZN10OpenSubdiv6v3_6_03Vtr8internal14SparseSelector19initializeSelectionEv.exit
  %16 = or disjoint i8 %13, 1
  store i8 %16, ptr %12, align 1
  %17 = load ptr, ptr %0, align 8
  %18 = getelementptr inbounds nuw i8, ptr %17, i64 8
  %19 = load ptr, ptr %18, align 8
  %20 = getelementptr inbounds nuw i8, ptr %19, i64 120
  %21 = shl nsw i32 %1, 1
  %22 = sext i32 %21 to i64
  %23 = load ptr, ptr %20, align 8
  %24 = getelementptr inbounds i32, ptr %23, i64 %22
  %25 = load i32, ptr %24, align 4
  %26 = getelementptr inbounds nuw i8, ptr %17, i64 456
  %27 = sext i32 %25 to i64
  %28 = load ptr, ptr %26, align 8
  %29 = getelementptr inbounds %"struct.OpenSubdiv::v3_6_0::Vtr::internal::Refinement::SparseTag", ptr %28, i64 %27
  %30 = load i8, ptr %29, align 1
  %31 = or i8 %30, 1
  store i8 %31, ptr %29, align 1
  %32 = getelementptr inbounds i8, ptr %24, i64 4
  %33 = load i32, ptr %32, align 4
  %34 = load ptr, ptr %0, align 8
  %35 = getelementptr inbounds nuw i8, ptr %34, i64 456
  %36 = sext i32 %33 to i64
  %37 = load ptr, ptr %35, align 8
  %38 = getelementptr inbounds %"struct.OpenSubdiv::v3_6_0::Vtr::internal::Refinement::SparseTag", ptr %37, i64 %36
  %39 = load i8, ptr %38, align 1
  %40 = or i8 %39, 1
  store i8 %40, ptr %38, align 1
  br label %41

41:                                               ; preds = %15, %_ZN10OpenSubdiv6v3_6_03Vtr8internal14SparseSelector19initializeSelectionEv.exit
  ret void
}